; Function Attrs: mustprogress uwtable
define noundef double @_ZNK8QuantLib22StochasticProcessArray4timeERKNS_4DateE(ptr nocapture noundef nonnull readonly align 8 dereferenceable(176) %this, ptr noundef nonnull align 8 dereferenceable(8) %d) unnamed_addr #6 align 2 {
entry:
  %processes_ = getelementptr inbounds nuw i8, ptr %this, i64 128
  %0 = load ptr, ptr %processes_, align 8, !tbaa !32
  %1 = load ptr, ptr %0, align 8, !tbaa !35
  %cmp.not.i = icmp eq ptr %1, null
  br i1 %cmp.not.i, label %cond.false.i, label %_ZNK5boost10shared_ptrIN8QuantLib19StochasticProcess1DEEptEv.exit, !prof !33

cond.false.i:                                     ; preds = %entry
  tail call void @_ZN5boost16assertion_failedEPKcS1_S1_l(ptr noundef nonnull @.str.11, ptr noundef nonnull @__PRETTY_FUNCTION__._ZNK5boost10shared_ptrIN8QuantLib19StochasticProcess1DEEptEv, ptr noundef nonnull @.str.12, i64 noundef 784)
  %.pre.i = load ptr, ptr %0, align 8, !tbaa !35
  br label %_ZNK5boost10shared_ptrIN8QuantLib19StochasticProcess1DEEptEv.exit

_ZNK5boost10shared_ptrIN8QuantLib19StochasticProcess1DEEptEv.exit: ; preds = %entry, %cond.false.i
  %2 = phi ptr [ %1, %entry ], [ %.pre.i, %cond.false.i ]
  %vtable = load ptr, ptr %2, align 8, !tbaa !28
  %vfn = getelementptr inbounds i8, ptr %vtable, i64 112
  %3 = load ptr, ptr %vfn, align 8
  %call3 = tail call noundef double %3(ptr noundef nonnull align 8 dereferenceable(128) %2, ptr noundef nonnull align 8 dereferenceable(8) %d)
  ret double %call3
}